target datalayout = "e-m:e-p270:32:32-p271:32:32-p272:64:64-i64:64-i128:128-f80:128-n8:16:32:64-S128"
target triple = "x86_64-pc-linux-gnu"

%struct.ImVec2 = type { float, float }
%struct.ImGuiStyle = type { float, float, %struct.ImVec2, float, float, %struct.ImVec2, %struct.ImVec2, i32, float, float, float, float, %struct.ImVec2, float, float, %struct.ImVec2, %struct.ImVec2, %struct.ImVec2, %struct.ImVec2, float, float, float, float, float, float, float, float, float, float, float, float, float, %struct.ImVec2, i32, %struct.ImVec2, %struct.ImVec2, float, %struct.ImVec2, %struct.ImVec2, %struct.ImVec2, %struct.ImVec2, float, i8, i8, i8, float, float, [56 x %struct.ImVec4], float, float, float, i32, i32 }
%struct.ImVec4 = type { float, float, float, float }
%struct.ImGuiIO = type { i32, i32, %struct.ImVec2, float, float, ptr, ptr, ptr, ptr, float, i8, ptr, %struct.ImVec2, i8, i8, i8, i8, i8, i8, i8, i8, i8, i8, float, float, float, float, float, float, i8, i8, i8, i8, i8, i8, i8, i8, i8, i8, ptr, ptr, ptr, ptr, ptr, i8, i8, i8, i8, i8, i8, i8, float, i32, i32, i32, i32, %struct.ImVec2, ptr, %struct.ImVec2, [5 x i8], float, float, i32, i8, i8, i8, i8, i32, [154 x %struct.ImGuiKeyData], i8, %struct.ImVec2, [5 x %struct.ImVec2], [5 x double], [5 x i8], [5 x i8], [5 x i16], [5 x i16], [5 x i8], [5 x i8], [5 x i8], i8, i8, [5 x float], [5 x float], [5 x float], float, i8, i8, i8, i8, i16, %struct.ImVector }
%struct.ImGuiKeyData = type { i8, float, float, float }
%struct.ImVector = type { i32, i32, ptr }
%struct.ImGuiContext = type { i8, i8, %struct.ImGuiIO, %struct.ImGuiPlatformIO, %struct.ImGuiStyle, ptr, float, float, float, float, %struct.ImDrawListSharedData, double, i32, i32, i32, i8, i8, i8, i8, i8, ptr, [16 x i8], %struct.ImVector.1, %struct.ImVector.1, i32, i32, %struct.ImVector.2, %struct.ImVector.2, %struct.ImVector.2, %struct.ImVector.3, %struct.ImGuiStorage, i32, %struct.ImVec2, i32, ptr, ptr, ptr, ptr, ptr, ptr, %struct.ImVec2, i32, i32, float, %struct.ImVec2, %struct.ImVec2, i32, i32, i32, i32, i32, float, float, i8, i8, i8, i32, i32, float, i8, i8, i8, i8, i8, i8, i8, i8, %struct.ImVec2, ptr, i32, i32, i8, i8, ptr, i32, float, double, double, double, %struct.ImBitArray, [154 x %struct.ImGuiKeyOwnerData], %struct.ImGuiKeyRoutingTable, i32, i8, i32, i32, i32, i32, %struct.ImGuiNextItemData, %struct.ImGuiLastItemData, %struct.ImGuiNextWindowData, i8, i32, %struct.ImVector.6, %struct.ImVector.7, %struct.ImVector.8, %struct.ImVector.9, %struct.ImVector.10, %struct.ImVector.11, %struct.ImVector.12, %struct.ImVector.12, %struct.ImVector.13, %struct.ImVector.14, ptr, i32, i32, i32, i32, i32, i32, i32, %struct.ImVector.9, i32, float, i32, i32, i32, i64, i8, i8, i8, i8, i8, i8, i8, %struct.ImGuiNavItemData, i8, i8, i8, i32, i32, i32, i32, i32, i32, %struct.ImRect, %struct.ImRect, i32, i32, i32, %struct.ImGuiNavItemData, %struct.ImGuiNavItemData, %struct.ImGuiNavItemData, %struct.ImGuiNavItemData, i32, i32, i32, i32, i8, i8, i32, i32, ptr, ptr, ptr, float, float, i8, i32, %struct.ImVec2, %struct.ImVec2, float, i8, i8, i8, i32, i32, i32, [4 x i8], %struct.ImGuiPayload, %struct.ImRect, %struct.ImRect, i32, i32, float, i32, i32, i32, i32, %struct.ImVector.15, [16 x i8], i32, %struct.ImVector.16, ptr, i32, i32, %struct.ImVector.17, %struct.ImPool, %struct.ImVector.19, %struct.ImVector.20, ptr, %struct.ImPool.21, %struct.ImVector.23, %struct.ImVector.24, %struct.ImGuiBoxSelectState, ptr, i32, %struct.ImVector.25, %struct.ImPool.26, i32, i32, float, float, i32, i32, i32, float, %struct.ImVec2, %struct.ImGuiInputTextState, %struct.ImGuiInputTextDeactivatedState, %struct.ImFont, i32, %struct.ImGuiDataTypeStorage, i32, i32, i32, i32, i32, float, float, i32, %struct.ImVec4, %struct.ImGuiComboPreviewData, %struct.ImRect, i8, i16, float, float, float, i8, i8, float, float, float, i16, i16, i16, ptr, %struct.ImVector.28, %struct.ImVector.30, %struct.ImGuiTypingSelectState, %struct.ImGuiPlatformImeData, %struct.ImGuiPlatformImeData, i8, float, %struct.ImGuiTextBuffer, %struct.ImVector.31, %struct.ImChunkStream, %struct.ImChunkStream.32, %struct.ImVector.33, i32, [10 x ptr], i8, i32, ptr, %struct.ImGuiTextBuffer, ptr, ptr, float, i8, i32, i32, i32, ptr, ptr, %struct.ImVec2, i8, i32, %struct.ImGuiErrorRecoveryState, ptr, i32, i32, %struct.ImGuiTextBuffer, %struct.ImGuiTextIndex, i32, i32, i8, i8, i8, i32, i8, i8, i8, i32, float, %struct.ImVec4, %struct.ImGuiMetricsConfig, %struct.ImGuiIDStackTool, %struct.ImGuiDebugAllocInfo, [60 x float], i32, i32, float, i32, i32, i32, %struct.ImVector.28, [64 x i8] }
%struct.ImGuiPlatformIO = type <{ ptr, ptr, ptr, ptr, ptr, ptr, ptr, i16, [6 x i8] }>
%struct.ImDrawListSharedData = type { %struct.ImVec2, ptr, float, float, float, float, %struct.ImVec4, i32, %struct.ImVector.0, [48 x %struct.ImVec2], float, [64 x i8], ptr }
%struct.ImVector.0 = type { i32, i32, ptr }
%struct.ImVector.1 = type { i32, i32, ptr }
%struct.ImVector.2 = type { i32, i32, ptr }
%struct.ImVector.3 = type { i32, i32, ptr }
%struct.ImGuiStorage = type { %struct.ImVector.4 }
%struct.ImVector.4 = type { i32, i32, ptr }
%struct.ImBitArray = type { [5 x i32] }
%struct.ImGuiKeyOwnerData = type <{ i32, i32, i8, i8, [2 x i8] }>
%struct.ImGuiKeyRoutingTable = type { [154 x i16], %struct.ImVector.5, %struct.ImVector.5 }
%struct.ImVector.5 = type { i32, i32, ptr }
%struct.ImGuiNextItemData = type <{ i32, i32, i32, [4 x i8], i64, float, i32, i32, i8, i8, %struct.ImGuiDataTypeStorage, [2 x i8], i32, [4 x i8] }>
%struct.ImGuiLastItemData = type { i32, i32, i32, %struct.ImRect, %struct.ImRect, %struct.ImRect, %struct.ImRect, i32 }
%struct.ImGuiNextWindowData = type { i32, i32, i32, i32, %struct.ImVec2, %struct.ImVec2, %struct.ImVec2, %struct.ImVec2, %struct.ImVec2, i32, i8, %struct.ImRect, ptr, ptr, float, %struct.ImVec2, i32 }
%struct.ImVector.6 = type { i32, i32, ptr }
%struct.ImVector.7 = type { i32, i32, ptr }
%struct.ImVector.8 = type { i32, i32, ptr }
%struct.ImVector.10 = type { i32, i32, ptr }
%struct.ImVector.11 = type { i32, i32, ptr }
%struct.ImVector.12 = type { i32, i32, ptr }
%struct.ImVector.13 = type { i32, i32, ptr }
%struct.ImVector.14 = type { i32, i32, ptr }
%struct.ImVector.9 = type { i32, i32, ptr }
%struct.ImGuiNavItemData = type { ptr, i32, i32, %struct.ImRect, i32, float, float, float, i64 }
%struct.ImGuiPayload = type <{ ptr, i32, i32, i32, i32, [33 x i8], i8, i8, [5 x i8] }>
%struct.ImVector.15 = type { i32, i32, ptr }
%struct.ImVector.16 = type { i32, i32, ptr }
%struct.ImVector.17 = type { i32, i32, ptr }
%struct.ImPool = type { %struct.ImVector.18, %struct.ImGuiStorage, i32, i32 }
%struct.ImVector.18 = type { i32, i32, ptr }
%struct.ImVector.19 = type { i32, i32, ptr }
%struct.ImVector.20 = type { i32, i32, ptr }
%struct.ImPool.21 = type { %struct.ImVector.22, %struct.ImGuiStorage, i32, i32 }
%struct.ImVector.22 = type { i32, i32, ptr }
%struct.ImVector.23 = type { i32, i32, ptr }
%struct.ImVector.24 = type { i32, i32, ptr }
%struct.ImGuiBoxSelectState = type <{ i32, i8, i8, i8, i8, i8, i16, i8, %struct.ImVec2, %struct.ImVec2, %struct.ImVec2, [4 x i8], ptr, i8, [3 x i8], %struct.ImRect, %struct.ImRect, %struct.ImRect, [4 x i8] }>
%struct.ImVector.25 = type { i32, i32, ptr }
%struct.ImPool.26 = type { %struct.ImVector.27, %struct.ImGuiStorage, i32, i32 }
%struct.ImVector.27 = type { i32, i32, ptr }
%struct.ImGuiInputTextState = type <{ ptr, ptr, i32, i32, %struct.ImVector.28, %struct.ImVector.28, %struct.ImVector.28, i32, %struct.ImVec2, float, i8, i8, i8, i8, i32, i8, [3 x i8], i32, i32, [4 x i8] }>
%struct.ImGuiInputTextDeactivatedState = type { i32, %struct.ImVector.28 }
%struct.ImFont = type <{ %struct.ImVector.19, float, float, %struct.ImVector, %struct.ImVector.29, ptr, ptr, ptr, i16, i16, i16, i16, float, float, i8, [3 x i8], float, float, float, i32, [2 x i8], [2 x i8] }>
%struct.ImVector.29 = type { i32, i32, ptr }
%struct.ImGuiDataTypeStorage = type { [8 x i8] }
%struct.ImGuiComboPreviewData = type { %struct.ImRect, %struct.ImVec2, %struct.ImVec2, %struct.ImVec2, float, i32 }
%struct.ImRect = type { %struct.ImVec2, %struct.ImVec2 }
%struct.ImVector.30 = type { i32, i32, ptr }
%struct.ImGuiTypingSelectState = type <{ %struct.ImGuiTypingSelectRequest, [64 x i8], i32, i32, float, i8, [3 x i8] }>
%struct.ImGuiTypingSelectRequest = type { i32, i32, ptr, i8, i8, i8 }
%struct.ImGuiPlatformImeData = type { i8, %struct.ImVec2, float }
%struct.ImVector.31 = type { i32, i32, ptr }
%struct.ImChunkStream = type { %struct.ImVector.28 }
%struct.ImChunkStream.32 = type { %struct.ImVector.28 }
%struct.ImVector.33 = type { i32, i32, ptr }
%struct.ImGuiErrorRecoveryState = type { i16, i16, i16, i16, i16, i16, i16, i16, i16, i16, i16 }
%struct.ImGuiTextBuffer = type { %struct.ImVector.28 }
%struct.ImGuiTextIndex = type <{ %struct.ImVector.10, i32, [4 x i8] }>
%struct.ImGuiMetricsConfig = type { i8, i8, i8, i8, i8, i8, i8, i8, i8, i32, i32, i32, i32 }
%struct.ImGuiIDStackTool = type { i32, i32, i32, %struct.ImVector.34, i8, float }
%struct.ImVector.34 = type { i32, i32, ptr }
%struct.ImGuiDebugAllocInfo = type { i32, i32, i16, [6 x %struct.ImGuiDebugAllocEntry] }
%struct.ImGuiDebugAllocEntry = type { i32, i16, i16 }
%struct.ImVector.28 = type { i32, i32, ptr }
%struct.ImGuiPopupData = type <{ i32, [4 x i8], ptr, ptr, i32, i32, i32, %struct.ImVec2, %struct.ImVec2, [4 x i8] }>

@GImGui = dso_local global ptr null, align 8

; Function Attrs: inlinehint mustprogress nounwind uwtable
define linkonce_odr dso_local noundef nonnull align 8 dereferenceable(52) ptr @_ZN8ImVectorI14ImGuiPopupDataEixEi(ptr noundef nonnull align 8 dereferenceable(16) %0, i32 noundef %1) #7 comdat align 2 {
  %3 = alloca ptr, align 8
  %4 = alloca i32, align 4
  store ptr %0, ptr %3, align 8, !tbaa !827
  store i32 %1, ptr %4, align 4, !tbaa !117
  %5 = load ptr, ptr %3, align 8
  %6 = getelementptr inbounds nuw %struct.ImVector.12, ptr %5, i32 0, i32 2
  %7 = load ptr, ptr %6, align 8, !tbaa !831
  %8 = load i32, ptr %4, align 4, !tbaa !117
  %9 = sext i32 %8 to i64
  %10 = getelementptr inbounds %struct.ImGuiPopupData, ptr %7, i64 %9
  ret ptr %10
}

; Function Attrs: mustprogress uwtable
define dso_local noundef zeroext i1 @_ZN5ImGui11IsPopupOpenEji(i32 noundef %0, i32 noundef %1) #0 {
  %3 = alloca i1, align 1
  %4 = alloca i32, align 4
  %5 = alloca i32, align 4
  %6 = alloca ptr, align 8
  %7 = alloca i32, align 4
  %8 = alloca i32, align 4
  store i32 %0, ptr %4, align 4, !tbaa !117
  store i32 %1, ptr %5, align 4, !tbaa !117
  call void @llvm.lifetime.start.p0(i64 8, ptr %6) #16
  %9 = load ptr, ptr @GImGui, align 8, !tbaa !133
  store ptr %9, ptr %6, align 8, !tbaa !133
  %10 = load i32, ptr %5, align 4, !tbaa !117
  %11 = and i32 %10, 1024
  %12 = icmp ne i32 %11, 0
  br i1 %12, label %13, label %33

13:                                               ; preds = %2
  %14 = load i32, ptr %5, align 4, !tbaa !117
  %15 = and i32 %14, 2048
  %16 = icmp ne i32 %15, 0
  br i1 %16, label %17, label %23

17:                                               ; preds = %13
  %18 = load ptr, ptr %6, align 8, !tbaa !133
  %19 = getelementptr inbounds nuw %struct.ImGuiContext, ptr %18, i32 0, i32 99
  %20 = getelementptr inbounds nuw %struct.ImVector.12, ptr %19, i32 0, i32 0
  %21 = load i32, ptr %20, align 8, !tbaa !1067
  %22 = icmp sgt i32 %21, 0
  store i1 %22, ptr %3, align 1
  store i32 1, ptr %7, align 4
  br label %87

23:                                               ; preds = %13
  %24 = load ptr, ptr %6, align 8, !tbaa !133
  %25 = getelementptr inbounds nuw %struct.ImGuiContext, ptr %24, i32 0, i32 99
  %26 = getelementptr inbounds nuw %struct.ImVector.12, ptr %25, i32 0, i32 0
  %27 = load i32, ptr %26, align 8, !tbaa !1067
  %28 = load ptr, ptr %6, align 8, !tbaa !133
  %29 = getelementptr inbounds nuw %struct.ImGuiContext, ptr %28, i32 0, i32 100
  %30 = getelementptr inbounds nuw %struct.ImVector.12, ptr %29, i32 0, i32 0
  %31 = load i32, ptr %30, align 8, !tbaa !1068
  %32 = icmp sgt i32 %27, %31
  store i1 %32, ptr %3, align 1
  store i32 1, ptr %7, align 4
  br label %87

33:                                               ; preds = %2
  %34 = load i32, ptr %5, align 4, !tbaa !117
  %35 = and i32 %34, 2048
  %36 = icmp ne i32 %35, 0
  br i1 %36, label %37, label %63

37:                                               ; preds = %33
  call void @llvm.lifetime.start.p0(i64 4, ptr %8) #16
  store i32 0, ptr %8, align 4, !tbaa !117
  br label %38

38:                                               ; preds = %57, %37
  %39 = load i32, ptr %8, align 4, !tbaa !117
  %40 = load ptr, ptr %6, align 8, !tbaa !133
  %41 = getelementptr inbounds nuw %struct.ImGuiContext, ptr %40, i32 0, i32 99
  %42 = getelementptr inbounds nuw %struct.ImVector.12, ptr %41, i32 0, i32 0
  %43 = load i32, ptr %42, align 8, !tbaa !1067
  %44 = icmp slt i32 %39, %43
  br i1 %44, label %46, label %45

45:                                               ; preds = %38
  store i32 2, ptr %7, align 4
  br label %60

46:                                               ; preds = %38
  %47 = load ptr, ptr %6, align 8, !tbaa !133
  %48 = getelementptr inbounds nuw %struct.ImGuiContext, ptr %47, i32 0, i32 99
  %49 = load i32, ptr %8, align 4, !tbaa !117
  %50 = call noundef nonnull align 8 dereferenceable(52) ptr @_ZN8ImVectorI14ImGuiPopupDataEixEi(ptr noundef nonnull align 8 dereferenceable(16) %48, i32 noundef %49)
  %51 = getelementptr inbounds nuw %struct.ImGuiPopupData, ptr %50, i32 0, i32 0
  %52 = load i32, ptr %51, align 8, !tbaa !1069
  %53 = load i32, ptr %4, align 4, !tbaa !117
  %54 = icmp eq i32 %52, %53
  br i1 %54, label %55, label %56

55:                                               ; preds = %46
  store i1 true, ptr %3, align 1
  store i32 1, ptr %7, align 4
  br label %60

56:                                               ; preds = %46
  br label %57

57:                                               ; preds = %56
  %58 = load i32, ptr %8, align 4, !tbaa !117
  %59 = add nsw i32 %58, 1
  store i32 %59, ptr %8, align 4, !tbaa !117
  br label %38, !llvm.loop !1071

60:                                               ; preds = %55, %45
  call void @llvm.lifetime.end.p0(i64 4, ptr %8) #16
  %61 = load i32, ptr %7, align 4
  switch i32 %61, label %87 [
    i32 2, label %62
  ]

62:                                               ; preds = %60
  store i1 false, ptr %3, align 1
  store i32 1, ptr %7, align 4
  br label %87

63:                                               ; preds = %33
  %64 = load ptr, ptr %6, align 8, !tbaa !133
  %65 = getelementptr inbounds nuw %struct.ImGuiContext, ptr %64, i32 0, i32 99
  %66 = getelementptr inbounds nuw %struct.ImVector.12, ptr %65, i32 0, i32 0
  %67 = load i32, ptr %66, align 8, !tbaa !1067
  %68 = load ptr, ptr %6, align 8, !tbaa !133
  %69 = getelementptr inbounds nuw %struct.ImGuiContext, ptr %68, i32 0, i32 100
  %70 = getelementptr inbounds nuw %struct.ImVector.12, ptr %69, i32 0, i32 0
  %71 = load i32, ptr %70, align 8, !tbaa !1068
  %72 = icmp sgt i32 %67, %71
  br i1 %72, label %73, label %85

73:                                               ; preds = %63
  %74 = load ptr, ptr %6, align 8, !tbaa !133
  %75 = getelementptr inbounds nuw %struct.ImGuiContext, ptr %74, i32 0, i32 99
  %76 = load ptr, ptr %6, align 8, !tbaa !133
  %77 = getelementptr inbounds nuw %struct.ImGuiContext, ptr %76, i32 0, i32 100
  %78 = getelementptr inbounds nuw %struct.ImVector.12, ptr %77, i32 0, i32 0
  %79 = load i32, ptr %78, align 8, !tbaa !1068
  %80 = call noundef nonnull align 8 dereferenceable(52) ptr @_ZN8ImVectorI14ImGuiPopupDataEixEi(ptr noundef nonnull align 8 dereferenceable(16) %75, i32 noundef %79)
  %81 = getelementptr inbounds nuw %struct.ImGuiPopupData, ptr %80, i32 0, i32 0
  %82 = load i32, ptr %81, align 8, !tbaa !1069
  %83 = load i32, ptr %4, align 4, !tbaa !117
  %84 = icmp eq i32 %82, %83
  br label %85

85:                                               ; preds = %73, %63
  %86 = phi i1 [ false, %63 ], [ %84, %73 ]
  store i1 %86, ptr %3, align 1
  store i32 1, ptr %7, align 4
  br label %87

87:                                               ; preds = %85, %62, %60, %23, %17
  call void @llvm.lifetime.end.p0(i64 8, ptr %6) #16
  %88 = load i1, ptr %3, align 1
  ret i1 %88
}