; Function Attrs: mustprogress nofree norecurse nosync nounwind willreturn memory(read, inaccessiblemem: none) uwtable
define dso_local noundef zeroext i1 @_ZN5ImGui11IsPopupOpenEji(i32 noundef %0, i32 noundef %1) local_unnamed_addr #31 {
  %3 = load ptr, ptr @GImGui, align 8, !tbaa !211
  %4 = and i32 %1, 1024
  %.not = icmp eq i32 %4, 0
  %5 = and i32 %1, 2048
  %.not21 = icmp eq i32 %5, 0
  %6 = getelementptr inbounds nuw i8, ptr %3, i64 7728
  %7 = load i32, ptr %6, align 8, !tbaa !808
  br i1 %.not, label %15, label %8

8:                                                ; preds = %2
  br i1 %.not21, label %11, label %9

9:                                                ; preds = %8
  %10 = icmp sgt i32 %7, 0
  br label %.loopexit

11:                                               ; preds = %8
  %12 = getelementptr inbounds nuw i8, ptr %3, i64 7744
  %13 = load i32, ptr %12, align 8, !tbaa !833
  %14 = icmp sgt i32 %7, %13
  br label %.loopexit

15:                                               ; preds = %2
  br i1 %.not21, label %22, label %.preheader

.preheader:                                       ; preds = %15
  %.not2224 = icmp sgt i32 %7, 0
  br i1 %.not2224, label %.lr.ph, label %.loopexit

.lr.ph:                                           ; preds = %.preheader
  %16 = getelementptr inbounds nuw i8, ptr %3, i64 7736
  %17 = load ptr, ptr %16, align 8, !tbaa !536
  %wide.trip.count = zext nneg i32 %7 to i64
  br label %18

18:                                               ; preds = %18, %.lr.ph
  %indvars.iv = phi i64 [ 0, %.lr.ph ], [ %indvars.iv.next, %18 ]
  %19 = getelementptr inbounds nuw %struct.ImGuiPopupData, ptr %17, i64 %indvars.iv
  %20 = load i32, ptr %19, align 8, !tbaa !829
  %21 = icmp eq i32 %20, %0
  %indvars.iv.next = add nuw nsw i64 %indvars.iv, 1
  %exitcond.not = icmp eq i64 %indvars.iv.next, %wide.trip.count
  %or.cond = select i1 %21, i1 true, i1 %exitcond.not
  br i1 %or.cond, label %.loopexit, label %18, !llvm.loop !828

22:                                               ; preds = %15
  %23 = getelementptr inbounds nuw i8, ptr %3, i64 7744
  %24 = load i32, ptr %23, align 8, !tbaa !833
  %25 = icmp sgt i32 %7, %24
  br i1 %25, label %26, label %.loopexit

26:                                               ; preds = %22
  %27 = getelementptr inbounds nuw i8, ptr %3, i64 7736
  %28 = load ptr, ptr %27, align 8, !tbaa !536
  %29 = sext i32 %24 to i64
  %30 = getelementptr inbounds %struct.ImGuiPopupData, ptr %28, i64 %29
  %31 = load i32, ptr %30, align 8, !tbaa !829
  %32 = icmp eq i32 %31, %0
  br label %.loopexit

.loopexit:                                        ; preds = %18, %.preheader, %22, %26, %11, %9
  %.019 = phi i1 [ %10, %9 ], [ %14, %11 ], [ false, %22 ], [ %32, %26 ], [ false, %.preheader ], [ %21, %18 ]
  ret i1 %.019
}